; Function Attrs: mustprogress uwtable
define void @_ZN6icu_7714ResourceBundleC2EP15UResourceBundleR10UErrorCode(ptr noundef nonnull align 8 dereferenceable(24) initializes((0, 8), (16, 24)) %0, ptr noundef %1, ptr noundef nonnull align 4 dereferenceable(4) %2) unnamed_addr #1 align 2 personality ptr @__gxx_personality_v0 {
  store ptr getelementptr inbounds nuw inrange(-16, 24) (i8, ptr @_ZTVN6icu_7714ResourceBundleE, i64 16), ptr %0, align 8, !tbaa !3
  %4 = getelementptr inbounds nuw i8, ptr %0, i64 16
  store ptr null, ptr %4, align 8, !tbaa !6
  %.not = icmp eq ptr %1, null
  br i1 %.not, label %9, label %5

5:                                                ; preds = %3
  %6 = invoke ptr @ures_copyResb_77(ptr noundef null, ptr noundef nonnull %1, ptr noundef nonnull %2)
          to label %9 unwind label %7

7:                                                ; preds = %5
  %8 = landingpad { ptr, i32 }
          cleanup
  tail call void @_ZN6icu_777UObjectD2Ev(ptr noundef nonnull align 8 dereferenceable(8) %0) #8
  resume { ptr, i32 } %8

9:                                                ; preds = %3, %5
  %.sink = phi ptr [ %6, %5 ], [ null, %3 ]
  %10 = getelementptr inbounds nuw i8, ptr %0, i64 8
  store ptr %.sink, ptr %10, align 8, !tbaa !17
  ret void
}